; Function Attrs: mustprogress nounwind uwtable
define hidden void @_ZN13SafePointNode12push_monitorEPK12FastLockNode(ptr noundef nonnull align 8 dereferenceable(81) %0, ptr nocapture noundef readonly %1) local_unnamed_addr #2 align 2 {
  %3 = load ptr, ptr %0, align 8
  %4 = getelementptr inbounds i8, ptr %3, i64 144
  %5 = load ptr, ptr %4, align 8
  %6 = tail call noundef ptr %5(ptr noundef nonnull align 8 dereferenceable(81) %0) #15
  %7 = getelementptr inbounds i8, ptr %6, i64 24
  %8 = load i32, ptr %7, align 8
  %9 = getelementptr inbounds i8, ptr %1, i64 8
  %10 = load ptr, ptr %9, align 8
  %11 = getelementptr inbounds i8, ptr %10, i64 16
  %12 = load ptr, ptr %11, align 8
  tail call void @_ZN4Node7ins_reqEjPS_(ptr noundef nonnull align 8 dereferenceable(52) %0, i32 noundef %8, ptr noundef %12) #15
  %13 = add nsw i32 %8, 1
  %14 = load ptr, ptr %9, align 8
  %15 = getelementptr inbounds i8, ptr %14, i64 8
  %16 = load ptr, ptr %15, align 8
  tail call void @_ZN4Node7ins_reqEjPS_(ptr noundef nonnull align 8 dereferenceable(52) %0, i32 noundef %13, ptr noundef %16) #15
  %17 = load ptr, ptr %0, align 8
  %18 = getelementptr inbounds i8, ptr %17, i64 144
  %19 = load ptr, ptr %18, align 8
  %20 = tail call noundef ptr %19(ptr noundef nonnull align 8 dereferenceable(81) %0) #15
  %21 = add nsw i32 %8, 2
  %22 = getelementptr inbounds i8, ptr %20, i64 24
  store i32 %21, ptr %22, align 8
  %23 = load ptr, ptr %0, align 8
  %24 = getelementptr inbounds i8, ptr %23, i64 144
  %25 = load ptr, ptr %24, align 8
  %26 = tail call noundef ptr %25(ptr noundef nonnull align 8 dereferenceable(81) %0) #15
  %27 = getelementptr inbounds i8, ptr %0, i64 24
  %28 = load i32, ptr %27, align 8
  %29 = getelementptr inbounds i8, ptr %26, i64 28
  store i32 %28, ptr %29, align 4
  ret void
}